target datalayout = "e-m:e-p270:32:32-p271:32:32-p272:64:64-i64:64-i128:128-f80:128-n8:16:32:64-S128"
target triple = "x86_64-pc-linux-gnu"

%struct._lv_tree_node_t = type { ptr, ptr, i32, i32, ptr }

; Function Attrs: nounwind uwtable
define void @lv_tree_node_delete(ptr noundef %0) #0 {
  %2 = alloca ptr, align 8
  %3 = alloca ptr, align 8
  %4 = alloca i32, align 4
  store ptr %0, ptr %2, align 8, !tbaa !3
  %5 = load ptr, ptr %2, align 8, !tbaa !3
  %6 = icmp ne ptr %5, null
  br i1 %6, label %7, label %48

7:                                                ; preds = %1
  %8 = load ptr, ptr %2, align 8, !tbaa !3
  %9 = getelementptr inbounds nuw %struct._lv_tree_node_t, ptr %8, i32 0, i32 0
  %10 = load ptr, ptr %9, align 8, !tbaa !11
  %11 = icmp ne ptr %10, null
  br i1 %11, label %12, label %45

12:                                               ; preds = %7
  call void @llvm.lifetime.start.p0(i64 8, ptr %3) #4
  %13 = load ptr, ptr %2, align 8, !tbaa !3
  %14 = getelementptr inbounds nuw %struct._lv_tree_node_t, ptr %13, i32 0, i32 0
  %15 = load ptr, ptr %14, align 8, !tbaa !11
  store ptr %15, ptr %3, align 8, !tbaa !3
  call void @llvm.lifetime.start.p0(i64 4, ptr %4) #4
  store i32 0, ptr %4, align 4, !tbaa !10
  br label %16

16:                                               ; preds = %41, %12
  %17 = load i32, ptr %4, align 4, !tbaa !10
  %18 = load ptr, ptr %3, align 8, !tbaa !3
  %19 = getelementptr inbounds nuw %struct._lv_tree_node_t, ptr %18, i32 0, i32 2
  %20 = load i32, ptr %19, align 8, !tbaa !14
  %21 = icmp ult i32 %17, %20
  br i1 %21, label %23, label %22

22:                                               ; preds = %16
  call void @llvm.lifetime.end.p0(i64 4, ptr %4) #4
  br label %44

23:                                               ; preds = %16
  %24 = load ptr, ptr %3, align 8, !tbaa !3
  %25 = getelementptr inbounds nuw %struct._lv_tree_node_t, ptr %24, i32 0, i32 1
  %26 = load ptr, ptr %25, align 8, !tbaa !13
  %27 = load i32, ptr %4, align 4, !tbaa !10
  %28 = zext i32 %27 to i64
  %29 = getelementptr inbounds nuw ptr, ptr %26, i64 %28
  %30 = load ptr, ptr %29, align 8, !tbaa !3
  %31 = load ptr, ptr %2, align 8, !tbaa !3
  %32 = icmp eq ptr %30, %31
  br i1 %32, label %33, label %40

33:                                               ; preds = %23
  %34 = load ptr, ptr %3, align 8, !tbaa !3
  %35 = getelementptr inbounds nuw %struct._lv_tree_node_t, ptr %34, i32 0, i32 1
  %36 = load ptr, ptr %35, align 8, !tbaa !13
  %37 = load i32, ptr %4, align 4, !tbaa !10
  %38 = zext i32 %37 to i64
  %39 = getelementptr inbounds nuw ptr, ptr %36, i64 %38
  store ptr null, ptr %39, align 8, !tbaa !3
  br label %40

40:                                               ; preds = %33, %23
  br label %41

41:                                               ; preds = %40
  %42 = load i32, ptr %4, align 4, !tbaa !10
  %43 = add i32 %42, 1
  store i32 %43, ptr %4, align 4, !tbaa !10
  br label %16, !llvm.loop !18

44:                                               ; preds = %22
  call void @llvm.lifetime.end.p0(i64 8, ptr %3) #4
  br label %45

45:                                               ; preds = %44, %7
  %46 = load ptr, ptr %2, align 8, !tbaa !3
  %47 = call zeroext i1 @lv_tree_walk(ptr noundef %46, i8 noundef zeroext 1, ptr noundef @_lv_tree_node_destructor_cb, ptr noundef null, ptr noundef null, ptr noundef null)
  br label %48

48:                                               ; preds = %45, %1
  ret void
}