; Function Attrs: nounwind uwtable
define void @lv_tree_node_delete(ptr noundef %0) local_unnamed_addr #0 {
  %.not = icmp eq ptr %0, null
  br i1 %.not, label %15, label %2

2:                                                ; preds = %1
  %3 = load ptr, ptr %0, align 8, !tbaa !13
  %.not13 = icmp eq ptr %3, null
  br i1 %.not13, label %.loopexit, label %.preheader

.preheader:                                       ; preds = %2
  %4 = getelementptr inbounds nuw i8, ptr %3, i64 16
  %5 = load i32, ptr %4, align 8, !tbaa !16
  %.not15 = icmp eq i32 %5, 0
  br i1 %.not15, label %.loopexit, label %.lr.ph

.lr.ph:                                           ; preds = %.preheader
  %6 = getelementptr inbounds nuw i8, ptr %3, i64 8
  %wide.trip.count = zext i32 %5 to i64
  br label %7

7:                                                ; preds = %.lr.ph, %13
  %indvars.iv = phi i64 [ 0, %.lr.ph ], [ %indvars.iv.next, %13 ]
  %8 = load ptr, ptr %6, align 8, !tbaa !15
  %9 = getelementptr inbounds nuw ptr, ptr %8, i64 %indvars.iv
  %10 = load ptr, ptr %9, align 8, !tbaa !17
  %11 = icmp eq ptr %10, %0
  br i1 %11, label %12, label %13

12:                                               ; preds = %7
  store ptr null, ptr %9, align 8, !tbaa !17
  br label %13

13:                                               ; preds = %7, %12
  %indvars.iv.next = add nuw nsw i64 %indvars.iv, 1
  %exitcond.not = icmp eq i64 %indvars.iv.next, %wide.trip.count
  br i1 %exitcond.not, label %.loopexit, label %7, !llvm.loop !19

.loopexit:                                        ; preds = %13, %.preheader, %2
  %14 = tail call zeroext i1 @lv_tree_walk(ptr noundef nonnull %0, i8 noundef zeroext 1, ptr noundef nonnull @_lv_tree_node_destructor_cb, ptr noundef null, ptr noundef null, ptr noundef null)
  br label %15

15:                                               ; preds = %.loopexit, %1
  ret void
}